; Function Attrs: nofree nounwind memory(read, argmem: readwrite, inaccessiblemem: none) uwtable
define noundef i32 @cli_map_find(ptr nocapture noundef %0, ptr noundef readonly %1, i32 noundef %2) local_unnamed_addr #15 {
  %4 = getelementptr inbounds i8, ptr %0, i64 44
  %5 = load i32, ptr %4, align 4
  %.not = icmp eq i32 %5, %2
  br i1 %.not, label %6, label %cli_hashtab_find.exit.thread

6:                                                ; preds = %3
  %7 = sext i32 %2 to i64
  %8 = getelementptr inbounds i8, ptr %0, i64 8
  %9 = load i64, ptr %8, align 8
  %.not.i.i = icmp eq i32 %2, 0
  br i1 %.not.i.i, label %hash.exit.i, label %.lr.ph.i.i

.lr.ph.i.i:                                       ; preds = %6, %.lr.ph.i.i
  %.010.i.i = phi i64 [ %25, %.lr.ph.i.i ], [ 0, %6 ]
  %.089.i.i = phi i32 [ %24, %.lr.ph.i.i ], [ 1, %6 ]
  %10 = getelementptr inbounds i8, ptr %1, i64 %.010.i.i
  %11 = load i8, ptr %10, align 1
  %12 = zext i8 %11 to i32
  %13 = add i32 %.089.i.i, %12
  %14 = xor i32 %13, -1
  %15 = shl i32 %13, 15
  %16 = add i32 %15, %14
  %17 = lshr i32 %16, 12
  %18 = xor i32 %17, %16
  %19 = mul i32 %18, 5
  %20 = lshr i32 %19, 4
  %21 = xor i32 %20, %19
  %22 = mul i32 %21, 2057
  %23 = lshr i32 %22, 16
  %24 = xor i32 %23, %22
  %25 = add nuw i64 %.010.i.i, 1
  %exitcond.not.i.i = icmp eq i64 %25, %7
  br i1 %exitcond.not.i.i, label %._crit_edge.loopexit.i.i, label %.lr.ph.i.i

._crit_edge.loopexit.i.i:                         ; preds = %.lr.ph.i.i
  %26 = zext i32 %24 to i64
  br label %hash.exit.i

hash.exit.i:                                      ; preds = %._crit_edge.loopexit.i.i, %6
  %.08.lcssa.i.i = phi i64 [ 1, %6 ], [ %26, %._crit_edge.loopexit.i.i ]
  %27 = add i64 %9, -1
  %28 = load ptr, ptr %0, align 8
  br label %29

29:                                               ; preds = %41, %hash.exit.i
  %.023.i = phi i64 [ 1, %hash.exit.i ], [ %42, %41 ]
  %.08.lcssa.i.pn.i = phi i64 [ %.08.lcssa.i.i, %hash.exit.i ], [ %43, %41 ]
  %.0.i = and i64 %.08.lcssa.i.pn.i, %27
  %.024.i = getelementptr inbounds %struct.cli_element, ptr %28, i64 %.0.i
  %30 = load ptr, ptr %.024.i, align 8
  %.not31.i = icmp eq ptr %30, null
  br i1 %.not31.i, label %cli_hashtab_find.exit.thread, label %31

31:                                               ; preds = %29
  %.not32.i = icmp eq ptr %30, @DELETED_KEY
  br i1 %.not32.i, label %41, label %32

32:                                               ; preds = %31
  %33 = getelementptr inbounds i8, ptr %.024.i, i64 16
  %34 = load i64, ptr %33, align 8
  %35 = icmp eq i64 %34, %7
  br i1 %35, label %36, label %41

36:                                               ; preds = %32
  %37 = icmp eq ptr %30, %1
  br i1 %37, label %cli_hashtab_find.exit, label %38

38:                                               ; preds = %36
  %39 = tail call i32 @strncmp(ptr noundef %1, ptr noundef nonnull %30, i64 noundef %7) #19
  %40 = icmp eq i32 %39, 0
  br i1 %40, label %cli_hashtab_find.exit, label %41

41:                                               ; preds = %38, %32, %31
  %42 = add i64 %.023.i, 1
  %43 = add i64 %.0.i, %.023.i
  %.not33.i = icmp ugt i64 %42, %9
  br i1 %.not33.i, label %cli_hashtab_find.exit.thread, label %29

cli_hashtab_find.exit:                            ; preds = %38, %36
  %44 = getelementptr inbounds i8, ptr %.024.i, i64 8
  %45 = load i64, ptr %44, align 8
  %46 = trunc i64 %45 to i32
  %47 = getelementptr inbounds i8, ptr %0, i64 56
  store i32 %46, ptr %47, align 8
  br label %cli_hashtab_find.exit.thread

cli_hashtab_find.exit.thread:                     ; preds = %29, %41, %3, %cli_hashtab_find.exit
  %.0 = phi i32 [ 0, %cli_hashtab_find.exit ], [ 3, %3 ], [ 16, %41 ], [ 16, %29 ]
  ret i32 %.0
}